; Function Attrs: mustprogress uwtable
define void @_ZN32pxrInternal_v0_24__pxrReserved__22Pcp_LayerStackRegistry17ForEachLayerStackERKNS_13TfFunctionRefIFvRKNS_9TfWeakPtrINS_13PcpLayerStackEEEEEE(ptr nocapture noundef nonnull readonly align 8 dereferenceable(32) %0, ptr nocapture noundef nonnull readonly align 8 dereferenceable(16) %1) local_unnamed_addr #0 align 2 personality ptr @__gxx_personality_v0 {
  %3 = alloca %"class.std::vector.78", align 8
  call void @_ZNK32pxrInternal_v0_24__pxrReserved__22Pcp_LayerStackRegistry17GetAllLayerStacksEv(ptr dead_on_unwind nonnull writable sret(%"class.std::vector.78") align 8 %3, ptr noundef nonnull align 8 dereferenceable(32) %0)
  %4 = load ptr, ptr %3, align 8
  %5 = getelementptr inbounds nuw i8, ptr %3, i64 8
  %6 = load ptr, ptr %5, align 8
  %.not9 = icmp eq ptr %4, %6
  br i1 %.not9, label %_ZSt8_DestroyIPN32pxrInternal_v0_24__pxrReserved__9TfWeakPtrINS0_13PcpLayerStackEEES3_EvT_S5_RSaIT0_E.exit.i, label %.lr.ph

.lr.ph:                                           ; preds = %2
  %7 = getelementptr inbounds nuw i8, ptr %1, i64 8
  br label %8

8:                                                ; preds = %.lr.ph, %_ZNK32pxrInternal_v0_24__pxrReserved__13TfFunctionRefIFvRKNS_9TfWeakPtrINS_13PcpLayerStackEEEEEclES5_.exit
  %.sroa.06.010 = phi ptr [ %4, %.lr.ph ], [ %11, %_ZNK32pxrInternal_v0_24__pxrReserved__13TfFunctionRefIFvRKNS_9TfWeakPtrINS_13PcpLayerStackEEEEEclES5_.exit ]
  %9 = load ptr, ptr %7, align 8
  %10 = load ptr, ptr %1, align 8
  invoke void %9(ptr noundef %10, ptr noundef nonnull align 8 dereferenceable(16) %.sroa.06.010)
          to label %_ZNK32pxrInternal_v0_24__pxrReserved__13TfFunctionRefIFvRKNS_9TfWeakPtrINS_13PcpLayerStackEEEEEclES5_.exit unwind label %12

_ZNK32pxrInternal_v0_24__pxrReserved__13TfFunctionRefIFvRKNS_9TfWeakPtrINS_13PcpLayerStackEEEEEclES5_.exit: ; preds = %8
  %11 = getelementptr inbounds i8, ptr %.sroa.06.010, i64 16
  %.not = icmp eq ptr %11, %6
  br i1 %.not, label %._crit_edge, label %8

12:                                               ; preds = %8
  %13 = landingpad { ptr, i32 }
          cleanup
  call void @_ZNSt6vectorIN32pxrInternal_v0_24__pxrReserved__9TfWeakPtrINS0_13PcpLayerStackEEESaIS3_EED2Ev(ptr noundef nonnull align 8 dereferenceable(24) %3) #20
  resume { ptr, i32 } %13

._crit_edge:                                      ; preds = %_ZNK32pxrInternal_v0_24__pxrReserved__13TfFunctionRefIFvRKNS_9TfWeakPtrINS_13PcpLayerStackEEEEEclES5_.exit
  %.pre = load ptr, ptr %3, align 8
  %.pre11 = load ptr, ptr %5, align 8
  %.not4.i.i.i.i = icmp eq ptr %.pre, %.pre11
  br i1 %.not4.i.i.i.i, label %_ZSt8_DestroyIPN32pxrInternal_v0_24__pxrReserved__9TfWeakPtrINS0_13PcpLayerStackEEES3_EvT_S5_RSaIT0_E.exit.i, label %.lr.ph.i.i.i.i

.lr.ph.i.i.i.i:                                   ; preds = %._crit_edge, %_ZSt8_DestroyIN32pxrInternal_v0_24__pxrReserved__9TfWeakPtrINS0_13PcpLayerStackEEEEvPT_.exit.i.i.i.i
  %.05.i.i.i.i = phi ptr [ %23, %_ZSt8_DestroyIN32pxrInternal_v0_24__pxrReserved__9TfWeakPtrINS0_13PcpLayerStackEEEEvPT_.exit.i.i.i.i ], [ %.pre, %._crit_edge ]
  %14 = getelementptr inbounds nuw i8, ptr %.05.i.i.i.i, i64 8
  %15 = load ptr, ptr %14, align 8
  %.not.i.i.i.i.i.i.i.i.i = icmp eq ptr %15, null
  br i1 %.not.i.i.i.i.i.i.i.i.i, label %_ZSt8_DestroyIN32pxrInternal_v0_24__pxrReserved__9TfWeakPtrINS0_13PcpLayerStackEEEEvPT_.exit.i.i.i.i, label %_ZN32pxrInternal_v0_24__pxrReserved__17Tf_RefPtr_Counter9RemoveRefEPKNS_9TfRefBaseE.exit.i.i.i.i.i.i.i.i

_ZN32pxrInternal_v0_24__pxrReserved__17Tf_RefPtr_Counter9RemoveRefEPKNS_9TfRefBaseE.exit.i.i.i.i.i.i.i.i: ; preds = %.lr.ph.i.i.i.i
  %16 = getelementptr inbounds nuw i8, ptr %15, i64 8
  %17 = atomicrmw sub ptr %16, i32 1 release, align 4
  %18 = icmp eq i32 %17, 1
  br i1 %18, label %19, label %_ZSt8_DestroyIN32pxrInternal_v0_24__pxrReserved__9TfWeakPtrINS0_13PcpLayerStackEEEEvPT_.exit.i.i.i.i

19:                                               ; preds = %_ZN32pxrInternal_v0_24__pxrReserved__17Tf_RefPtr_Counter9RemoveRefEPKNS_9TfRefBaseE.exit.i.i.i.i.i.i.i.i
  %20 = load ptr, ptr %15, align 8
  %21 = getelementptr inbounds i8, ptr %20, i64 8
  %22 = load ptr, ptr %21, align 8
  call void %22(ptr noundef nonnull align 8 dereferenceable(12) %15) #20
  br label %_ZSt8_DestroyIN32pxrInternal_v0_24__pxrReserved__9TfWeakPtrINS0_13PcpLayerStackEEEEvPT_.exit.i.i.i.i

_ZSt8_DestroyIN32pxrInternal_v0_24__pxrReserved__9TfWeakPtrINS0_13PcpLayerStackEEEEvPT_.exit.i.i.i.i: ; preds = %19, %_ZN32pxrInternal_v0_24__pxrReserved__17Tf_RefPtr_Counter9RemoveRefEPKNS_9TfRefBaseE.exit.i.i.i.i.i.i.i.i, %.lr.ph.i.i.i.i
  %23 = getelementptr inbounds i8, ptr %.05.i.i.i.i, i64 16
  %.not.i.i.i.i = icmp eq ptr %23, %.pre11
  br i1 %.not.i.i.i.i, label %_ZSt8_DestroyIPN32pxrInternal_v0_24__pxrReserved__9TfWeakPtrINS0_13PcpLayerStackEEES3_EvT_S5_RSaIT0_E.exitthread-pre-split.i, label %.lr.ph.i.i.i.i, !llvm.loop !82

_ZSt8_DestroyIPN32pxrInternal_v0_24__pxrReserved__9TfWeakPtrINS0_13PcpLayerStackEEES3_EvT_S5_RSaIT0_E.exitthread-pre-split.i: ; preds = %_ZSt8_DestroyIN32pxrInternal_v0_24__pxrReserved__9TfWeakPtrINS0_13PcpLayerStackEEEEvPT_.exit.i.i.i.i
  %.pr.i = load ptr, ptr %3, align 8
  br label %_ZSt8_DestroyIPN32pxrInternal_v0_24__pxrReserved__9TfWeakPtrINS0_13PcpLayerStackEEES3_EvT_S5_RSaIT0_E.exit.i

_ZSt8_DestroyIPN32pxrInternal_v0_24__pxrReserved__9TfWeakPtrINS0_13PcpLayerStackEEES3_EvT_S5_RSaIT0_E.exit.i: ; preds = %2, %_ZSt8_DestroyIPN32pxrInternal_v0_24__pxrReserved__9TfWeakPtrINS0_13PcpLayerStackEEES3_EvT_S5_RSaIT0_E.exitthread-pre-split.i, %._crit_edge
  %24 = phi ptr [ %.pr.i, %_ZSt8_DestroyIPN32pxrInternal_v0_24__pxrReserved__9TfWeakPtrINS0_13PcpLayerStackEEES3_EvT_S5_RSaIT0_E.exitthread-pre-split.i ], [ %.pre, %._crit_edge ], [ %4, %2 ]
  %.not.i.i.i = icmp eq ptr %24, null
  br i1 %.not.i.i.i, label %_ZNSt6vectorIN32pxrInternal_v0_24__pxrReserved__9TfWeakPtrINS0_13PcpLayerStackEEESaIS3_EED2Ev.exit, label %25

25:                                               ; preds = %_ZSt8_DestroyIPN32pxrInternal_v0_24__pxrReserved__9TfWeakPtrINS0_13PcpLayerStackEEES3_EvT_S5_RSaIT0_E.exit.i
  %26 = getelementptr inbounds nuw i8, ptr %3, i64 16
  %27 = load ptr, ptr %26, align 8
  %28 = ptrtoint ptr %27 to i64
  %29 = ptrtoint ptr %24 to i64
  %30 = sub i64 %28, %29
  call void @_ZdlPvm(ptr noundef nonnull %24, i64 noundef %30) #19
  br label %_ZNSt6vectorIN32pxrInternal_v0_24__pxrReserved__9TfWeakPtrINS0_13PcpLayerStackEEESaIS3_EED2Ev.exit

_ZNSt6vectorIN32pxrInternal_v0_24__pxrReserved__9TfWeakPtrINS0_13PcpLayerStackEEESaIS3_EED2Ev.exit: ; preds = %_ZSt8_DestroyIPN32pxrInternal_v0_24__pxrReserved__9TfWeakPtrINS0_13PcpLayerStackEEES3_EvT_S5_RSaIT0_E.exit.i, %25
  ret void
}